; Function Attrs: mustprogress uwtable
define hidden void @_ZN6Assimp4Ogre10SubMeshXmlC2Ev(ptr noundef nonnull align 8 dereferenceable(168) initializes((0, 4)) %0) unnamed_addr #3 align 2 personality ptr @__gxx_personality_v0 {
  store i32 0, ptr %0, align 8
  %2 = getelementptr inbounds nuw i8, ptr %0, i64 8
  %3 = getelementptr inbounds nuw i8, ptr %0, i64 24
  store ptr %3, ptr %2, align 8
  %4 = getelementptr inbounds nuw i8, ptr %0, i64 16
  store i64 0, ptr %4, align 8
  store i8 0, ptr %3, align 8
  %5 = getelementptr inbounds nuw i8, ptr %0, i64 40
  %6 = getelementptr inbounds nuw i8, ptr %0, i64 56
  store ptr %6, ptr %5, align 8
  %7 = getelementptr inbounds nuw i8, ptr %0, i64 48
  store i64 0, ptr %7, align 8
  store i8 0, ptr %6, align 8
  %8 = getelementptr inbounds nuw i8, ptr %0, i64 72
  %9 = getelementptr inbounds nuw i8, ptr %0, i64 88
  store ptr %9, ptr %8, align 8
  %10 = getelementptr inbounds nuw i8, ptr %0, i64 80
  store i64 0, ptr %10, align 8
  store i8 0, ptr %9, align 8
  %11 = getelementptr inbounds nuw i8, ptr %0, i64 104
  %12 = getelementptr inbounds nuw i8, ptr %0, i64 120
  store ptr %12, ptr %11, align 8
  %13 = getelementptr inbounds nuw i8, ptr %0, i64 112
  store i64 0, ptr %13, align 8
  store i8 0, ptr %12, align 8
  %14 = getelementptr inbounds nuw i8, ptr %0, i64 136
  store i32 -1, ptr %14, align 8
  %15 = getelementptr inbounds nuw i8, ptr %0, i64 140
  store i8 0, ptr %15, align 4
  %16 = getelementptr inbounds nuw i8, ptr %0, i64 144
  store i32 1, ptr %16, align 8
  %17 = invoke noalias noundef nonnull dereferenceable(32) ptr @_Znwm(i64 noundef 32) #33
          to label %18 unwind label %22

18:                                               ; preds = %1
  %19 = getelementptr inbounds nuw i8, ptr %0, i64 152
  store i32 0, ptr %17, align 8
  %20 = getelementptr inbounds nuw i8, ptr %17, i64 8
  tail call void @llvm.memset.p0.i64(ptr noundef nonnull align 8 dereferenceable(24) %20, i8 0, i64 24, i1 false)
  store ptr %17, ptr %19, align 8
  %21 = getelementptr inbounds nuw i8, ptr %0, i64 160
  store ptr null, ptr %21, align 8
  ret void

22:                                               ; preds = %1
  %23 = landingpad { ptr, i32 }
          cleanup
  tail call void @_ZN6Assimp4Ogre8ISubMeshD2Ev(ptr noundef nonnull align 8 dereferenceable(148) %0) #31
  resume { ptr, i32 } %23
}